; Function Attrs: nounwind uwtable
define void @b2Body_SetBullet(i64 %0, i1 noundef zeroext %1) local_unnamed_addr #0 {
  %.sroa.2.0.extract.shift = lshr i64 %0, 32
  %3 = trunc nuw i64 %.sroa.2.0.extract.shift to i32
  %4 = and i32 %3, 65535
  %5 = tail call ptr @b2GetWorldLocked(i32 noundef %4) #10
  %6 = icmp eq ptr %5, null
  br i1 %6, label %22, label %7

7:                                                ; preds = %2
  %8 = zext i1 %1 to i8
  %9 = getelementptr inbounds nuw i8, ptr %5, i64 1032
  %.val.i = load ptr, ptr %9, align 8, !tbaa !10
  %10 = shl i64 %0, 32
  %sext.i = add i64 %10, -4294967296
  %11 = ashr exact i64 %sext.i, 25
  %12 = getelementptr inbounds i8, ptr %.val.i, i64 %11
  %13 = getelementptr inbounds nuw i8, ptr %5, i64 1072
  %14 = getelementptr inbounds nuw i8, ptr %12, i64 40
  %15 = load i32, ptr %14, align 8, !tbaa !19
  %.val.i5 = load ptr, ptr %13, align 8, !tbaa !24
  %16 = sext i32 %15 to i64
  %17 = getelementptr inbounds %struct.b2SolverSet, ptr %.val.i5, i64 %16
  %18 = getelementptr inbounds nuw i8, ptr %12, i64 44
  %19 = load i32, ptr %18, align 4, !tbaa !27
  %.val5.i = load ptr, ptr %17, align 8, !tbaa !14
  %20 = sext i32 %19 to i64
  %21 = getelementptr inbounds %struct.b2BodySim, ptr %.val5.i, i64 %20, i32 16
  store i8 %8, ptr %21, align 1, !tbaa !109
  br label %22

22:                                               ; preds = %2, %7
  ret void
}